target datalayout = "e-m:e-p270:32:32-p271:32:32-p272:64:64-i64:64-i128:128-f80:128-n8:16:32:64-S128"
target triple = "x86_64-pc-linux-gnu"

%struct.smart_str = type { ptr, i64 }
%struct._zend_refcounted_h = type { i32, %union.anon.3 }
%union.anon.3 = type { i32 }
%struct._zend_string = type { %struct._zend_refcounted_h, i64, i64, [1 x i8] }

@.str.19 = private unnamed_addr constant [3 x i8] c"\0D\0A\00", align 1
@.str.73 = private unnamed_addr constant [21 x i8] c"Proxy-Authorization:\00", align 1

; Function Attrs: alwaysinline nounwind uwtable
define internal i64 @smart_str_alloc(ptr noundef %0, i64 noundef %1, i1 noundef zeroext %2) #3 {
  %4 = alloca ptr, align 8
  %5 = alloca i64, align 8
  %6 = alloca i8, align 1
  store ptr %0, ptr %4, align 8, !tbaa !96
  store i64 %1, ptr %5, align 8, !tbaa !28
  %7 = zext i1 %2 to i8
  store i8 %7, ptr %6, align 1, !tbaa !30
  %8 = load ptr, ptr %4, align 8, !tbaa !96
  %9 = getelementptr inbounds nuw %struct.smart_str, ptr %8, i32 0, i32 0
  %10 = load ptr, ptr %9, align 8, !tbaa !71
  %11 = icmp ne ptr %10, null
  %12 = xor i1 %11, true
  %13 = xor i1 %12, true
  %14 = xor i1 %13, true
  %15 = zext i1 %14 to i32
  %16 = sext i32 %15 to i64
  %17 = call i64 @llvm.expect.i64(i64 %16, i64 0)
  %18 = icmp ne i64 %17, 0
  br i1 %18, label %19, label %20

19:                                               ; preds = %3
  br label %40

20:                                               ; preds = %3
  %21 = load ptr, ptr %4, align 8, !tbaa !96
  %22 = getelementptr inbounds nuw %struct.smart_str, ptr %21, i32 0, i32 0
  %23 = load ptr, ptr %22, align 8, !tbaa !71
  %24 = getelementptr inbounds nuw %struct._zend_string, ptr %23, i32 0, i32 2
  %25 = load i64, ptr %24, align 8, !tbaa !37
  %26 = load i64, ptr %5, align 8, !tbaa !28
  %27 = add i64 %26, %25
  store i64 %27, ptr %5, align 8, !tbaa !28
  %28 = load i64, ptr %5, align 8, !tbaa !28
  %29 = load ptr, ptr %4, align 8, !tbaa !96
  %30 = getelementptr inbounds nuw %struct.smart_str, ptr %29, i32 0, i32 1
  %31 = load i64, ptr %30, align 8, !tbaa !97
  %32 = icmp uge i64 %28, %31
  %33 = xor i1 %32, true
  %34 = xor i1 %33, true
  %35 = zext i1 %34 to i32
  %36 = sext i32 %35 to i64
  %37 = call i64 @llvm.expect.i64(i64 %36, i64 0)
  %38 = icmp ne i64 %37, 0
  br i1 %38, label %39, label %50

39:                                               ; preds = %20
  br label %40

40:                                               ; preds = %39, %19
  %41 = load i8, ptr %6, align 1, !tbaa !30, !range !47, !noundef !48
  %42 = trunc i8 %41 to i1
  br i1 %42, label %43, label %46

43:                                               ; preds = %40
  %44 = load ptr, ptr %4, align 8, !tbaa !96
  %45 = load i64, ptr %5, align 8, !tbaa !28
  call void @smart_str_realloc(ptr noundef %44, i64 noundef %45)
  br label %49

46:                                               ; preds = %40
  %47 = load ptr, ptr %4, align 8, !tbaa !96
  %48 = load i64, ptr %5, align 8, !tbaa !28
  call void @smart_str_erealloc(ptr noundef %47, i64 noundef %48)
  br label %49

49:                                               ; preds = %46, %43
  br label %50

50:                                               ; preds = %49, %20
  br label %51

51:                                               ; preds = %50
  %52 = load i64, ptr %5, align 8, !tbaa !28
  ret i64 %52
}

; Function Attrs: alwaysinline nounwind uwtable
define internal void @smart_str_appendl_ex(ptr noundef %0, ptr noundef %1, i64 noundef %2, i1 noundef zeroext %3) #3 {
  %5 = alloca ptr, align 8
  %6 = alloca ptr, align 8
  %7 = alloca i64, align 8
  %8 = alloca i8, align 1
  %9 = alloca i64, align 8
  store ptr %0, ptr %5, align 8, !tbaa !96
  store ptr %1, ptr %6, align 8, !tbaa !9
  store i64 %2, ptr %7, align 8, !tbaa !28
  %10 = zext i1 %3 to i8
  store i8 %10, ptr %8, align 1, !tbaa !30
  call void @llvm.lifetime.start.p0(i64 8, ptr %9) #15
  %11 = load ptr, ptr %5, align 8, !tbaa !96
  %12 = load i64, ptr %7, align 8, !tbaa !28
  %13 = load i8, ptr %8, align 1, !tbaa !30, !range !47, !noundef !48
  %14 = trunc i8 %13 to i1
  %15 = call i64 @smart_str_alloc(ptr noundef %11, i64 noundef %12, i1 noundef zeroext %14)
  store i64 %15, ptr %9, align 8, !tbaa !28
  %16 = load ptr, ptr %5, align 8, !tbaa !96
  %17 = getelementptr inbounds nuw %struct.smart_str, ptr %16, i32 0, i32 0
  %18 = load ptr, ptr %17, align 8, !tbaa !71
  %19 = getelementptr inbounds nuw %struct._zend_string, ptr %18, i32 0, i32 3
  %20 = getelementptr inbounds [1 x i8], ptr %19, i64 0, i64 0
  %21 = load ptr, ptr %5, align 8, !tbaa !96
  %22 = getelementptr inbounds nuw %struct.smart_str, ptr %21, i32 0, i32 0
  %23 = load ptr, ptr %22, align 8, !tbaa !71
  %24 = getelementptr inbounds nuw %struct._zend_string, ptr %23, i32 0, i32 2
  %25 = load i64, ptr %24, align 8, !tbaa !37
  %26 = getelementptr inbounds nuw i8, ptr %20, i64 %25
  %27 = load ptr, ptr %6, align 8, !tbaa !9
  %28 = load i64, ptr %7, align 8, !tbaa !28
  call void @llvm.memcpy.p0.p0.i64(ptr align 1 %26, ptr align 1 %27, i64 %28, i1 false)
  %29 = load i64, ptr %9, align 8, !tbaa !28
  %30 = load ptr, ptr %5, align 8, !tbaa !96
  %31 = getelementptr inbounds nuw %struct.smart_str, ptr %30, i32 0, i32 0
  %32 = load ptr, ptr %31, align 8, !tbaa !71
  %33 = getelementptr inbounds nuw %struct._zend_string, ptr %32, i32 0, i32 2
  store i64 %29, ptr %33, align 8, !tbaa !37
  call void @llvm.lifetime.end.p0(i64 8, ptr %9) #15
  ret void
}

; Function Attrs: alwaysinline nounwind uwtable
define internal void @smart_str_appendl(ptr noundef %0, ptr noundef %1, i64 noundef %2) #3 {
  %4 = alloca ptr, align 8
  %5 = alloca ptr, align 8
  %6 = alloca i64, align 8
  store ptr %0, ptr %4, align 8, !tbaa !96
  store ptr %1, ptr %5, align 8, !tbaa !9
  store i64 %2, ptr %6, align 8, !tbaa !28
  %7 = load ptr, ptr %4, align 8, !tbaa !96
  %8 = load ptr, ptr %5, align 8, !tbaa !9
  %9 = load i64, ptr %6, align 8, !tbaa !28
  call void @smart_str_appendl_ex(ptr noundef %7, ptr noundef %8, i64 noundef %9, i1 noundef zeroext false)
  ret void
}

; Function Attrs: nounwind uwtable
define internal i32 @php_stream_handle_proxy_authorization_header(ptr noundef %0, ptr noundef %1) #0 {
  %3 = alloca i32, align 4
  %4 = alloca ptr, align 8
  %5 = alloca ptr, align 8
  %6 = alloca ptr, align 8
  %7 = alloca i32, align 4
  store ptr %0, ptr %4, align 8, !tbaa !9
  store ptr %1, ptr %5, align 8, !tbaa !96
  call void @llvm.lifetime.start.p0(i64 8, ptr %6) #15
  br label %8

8:                                                ; preds = %140, %2
  br label %9

9:                                                ; preds = %21, %8
  %10 = load ptr, ptr %4, align 8, !tbaa !9
  %11 = load i8, ptr %10, align 1, !tbaa !17
  %12 = sext i8 %11 to i32
  %13 = icmp eq i32 %12, 32
  br i1 %13, label %19, label %14

14:                                               ; preds = %9
  %15 = load ptr, ptr %4, align 8, !tbaa !9
  %16 = load i8, ptr %15, align 1, !tbaa !17
  %17 = sext i8 %16 to i32
  %18 = icmp eq i32 %17, 9
  br label %19

19:                                               ; preds = %14, %9
  %20 = phi i1 [ true, %9 ], [ %18, %14 ]
  br i1 %20, label %21, label %24

21:                                               ; preds = %19
  %22 = load ptr, ptr %4, align 8, !tbaa !9
  %23 = getelementptr inbounds nuw i8, ptr %22, i32 1
  store ptr %23, ptr %4, align 8, !tbaa !9
  br label %9

24:                                               ; preds = %19
  %25 = load ptr, ptr %4, align 8, !tbaa !9
  store ptr %25, ptr %6, align 8, !tbaa !9
  br label %26

26:                                               ; preds = %48, %24
  %27 = load ptr, ptr %6, align 8, !tbaa !9
  %28 = load i8, ptr %27, align 1, !tbaa !17
  %29 = sext i8 %28 to i32
  %30 = icmp ne i32 %29, 0
  br i1 %30, label %31, label %46

31:                                               ; preds = %26
  %32 = load ptr, ptr %6, align 8, !tbaa !9
  %33 = load i8, ptr %32, align 1, !tbaa !17
  %34 = sext i8 %33 to i32
  %35 = icmp ne i32 %34, 58
  br i1 %35, label %36, label %46

36:                                               ; preds = %31
  %37 = load ptr, ptr %6, align 8, !tbaa !9
  %38 = load i8, ptr %37, align 1, !tbaa !17
  %39 = sext i8 %38 to i32
  %40 = icmp ne i32 %39, 13
  br i1 %40, label %41, label %46

41:                                               ; preds = %36
  %42 = load ptr, ptr %6, align 8, !tbaa !9
  %43 = load i8, ptr %42, align 1, !tbaa !17
  %44 = sext i8 %43 to i32
  %45 = icmp ne i32 %44, 10
  br label %46

46:                                               ; preds = %41, %36, %31, %26
  %47 = phi i1 [ false, %36 ], [ false, %31 ], [ false, %26 ], [ %45, %41 ]
  br i1 %47, label %48, label %51

48:                                               ; preds = %46
  %49 = load ptr, ptr %6, align 8, !tbaa !9
  %50 = getelementptr inbounds nuw i8, ptr %49, i32 1
  store ptr %50, ptr %6, align 8, !tbaa !9
  br label %26

51:                                               ; preds = %46
  %52 = load ptr, ptr %6, align 8, !tbaa !9
  %53 = load i8, ptr %52, align 1, !tbaa !17
  %54 = sext i8 %53 to i32
  %55 = icmp eq i32 %54, 58
  br i1 %55, label %56, label %122

56:                                               ; preds = %51
  %57 = load ptr, ptr %6, align 8, !tbaa !9
  %58 = getelementptr inbounds nuw i8, ptr %57, i32 1
  store ptr %58, ptr %6, align 8, !tbaa !9
  %59 = load ptr, ptr %6, align 8, !tbaa !9
  %60 = load ptr, ptr %4, align 8, !tbaa !9
  %61 = ptrtoint ptr %59 to i64
  %62 = ptrtoint ptr %60 to i64
  %63 = sub i64 %61, %62
  %64 = icmp eq i64 %63, 20
  br i1 %64, label %65, label %99

65:                                               ; preds = %56
  %66 = load ptr, ptr %4, align 8, !tbaa !9
  %67 = call i32 @zend_binary_strcasecmp(ptr noundef %66, i64 noundef 20, ptr noundef @.str.73, i64 noundef 20)
  %68 = icmp eq i32 %67, 0
  br i1 %68, label %69, label %99

69:                                               ; preds = %65
  br label %70

70:                                               ; preds = %87, %69
  %71 = load ptr, ptr %6, align 8, !tbaa !9
  %72 = load i8, ptr %71, align 1, !tbaa !17
  %73 = sext i8 %72 to i32
  %74 = icmp ne i32 %73, 0
  br i1 %74, label %75, label %85

75:                                               ; preds = %70
  %76 = load ptr, ptr %6, align 8, !tbaa !9
  %77 = load i8, ptr %76, align 1, !tbaa !17
  %78 = sext i8 %77 to i32
  %79 = icmp ne i32 %78, 13
  br i1 %79, label %80, label %85

80:                                               ; preds = %75
  %81 = load ptr, ptr %6, align 8, !tbaa !9
  %82 = load i8, ptr %81, align 1, !tbaa !17
  %83 = sext i8 %82 to i32
  %84 = icmp ne i32 %83, 10
  br label %85

85:                                               ; preds = %80, %75, %70
  %86 = phi i1 [ false, %75 ], [ false, %70 ], [ %84, %80 ]
  br i1 %86, label %87, label %90

87:                                               ; preds = %85
  %88 = load ptr, ptr %6, align 8, !tbaa !9
  %89 = getelementptr inbounds nuw i8, ptr %88, i32 1
  store ptr %89, ptr %6, align 8, !tbaa !9
  br label %70

90:                                               ; preds = %85
  %91 = load ptr, ptr %5, align 8, !tbaa !96
  %92 = load ptr, ptr %4, align 8, !tbaa !9
  %93 = load ptr, ptr %6, align 8, !tbaa !9
  %94 = load ptr, ptr %4, align 8, !tbaa !9
  %95 = ptrtoint ptr %93 to i64
  %96 = ptrtoint ptr %94 to i64
  %97 = sub i64 %95, %96
  call void @smart_str_appendl(ptr noundef %91, ptr noundef %92, i64 noundef %97)
  %98 = load ptr, ptr %5, align 8, !tbaa !96
  call void @smart_str_appendl(ptr noundef %98, ptr noundef @.str.19, i64 noundef 2)
  store i32 0, ptr %3, align 4
  store i32 1, ptr %7, align 4
  br label %146

99:                                               ; preds = %65, %56
  br label %100

100:                                              ; preds = %117, %99
  %101 = load ptr, ptr %6, align 8, !tbaa !9
  %102 = load i8, ptr %101, align 1, !tbaa !17
  %103 = sext i8 %102 to i32
  %104 = icmp ne i32 %103, 0
  br i1 %104, label %105, label %115

105:                                              ; preds = %100
  %106 = load ptr, ptr %6, align 8, !tbaa !9
  %107 = load i8, ptr %106, align 1, !tbaa !17
  %108 = sext i8 %107 to i32
  %109 = icmp ne i32 %108, 13
  br i1 %109, label %110, label %115

110:                                              ; preds = %105
  %111 = load ptr, ptr %6, align 8, !tbaa !9
  %112 = load i8, ptr %111, align 1, !tbaa !17
  %113 = sext i8 %112 to i32
  %114 = icmp ne i32 %113, 10
  br label %115

115:                                              ; preds = %110, %105, %100
  %116 = phi i1 [ false, %105 ], [ false, %100 ], [ %114, %110 ]
  br i1 %116, label %117, label %120

117:                                              ; preds = %115
  %118 = load ptr, ptr %6, align 8, !tbaa !9
  %119 = getelementptr inbounds nuw i8, ptr %118, i32 1
  store ptr %119, ptr %6, align 8, !tbaa !9
  br label %100

120:                                              ; preds = %115
  br label %121

121:                                              ; preds = %120
  br label %122

122:                                              ; preds = %121, %51
  %123 = load ptr, ptr %6, align 8, !tbaa !9
  store ptr %123, ptr %4, align 8, !tbaa !9
  br label %124

124:                                              ; preds = %136, %122
  %125 = load ptr, ptr %4, align 8, !tbaa !9
  %126 = load i8, ptr %125, align 1, !tbaa !17
  %127 = sext i8 %126 to i32
  %128 = icmp eq i32 %127, 13
  br i1 %128, label %134, label %129

129:                                              ; preds = %124
  %130 = load ptr, ptr %4, align 8, !tbaa !9
  %131 = load i8, ptr %130, align 1, !tbaa !17
  %132 = sext i8 %131 to i32
  %133 = icmp eq i32 %132, 10
  br label %134

134:                                              ; preds = %129, %124
  %135 = phi i1 [ true, %124 ], [ %133, %129 ]
  br i1 %135, label %136, label %139

136:                                              ; preds = %134
  %137 = load ptr, ptr %4, align 8, !tbaa !9
  %138 = getelementptr inbounds nuw i8, ptr %137, i32 1
  store ptr %138, ptr %4, align 8, !tbaa !9
  br label %124

139:                                              ; preds = %134
  br label %140

140:                                              ; preds = %139
  %141 = load ptr, ptr %4, align 8, !tbaa !9
  %142 = load i8, ptr %141, align 1, !tbaa !17
  %143 = sext i8 %142 to i32
  %144 = icmp ne i32 %143, 0
  br i1 %144, label %8, label %145

145:                                              ; preds = %140
  store i32 -1, ptr %3, align 4
  store i32 1, ptr %7, align 4
  br label %146

146:                                              ; preds = %145, %90
  call void @llvm.lifetime.end.p0(i64 8, ptr %6) #15
  %147 = load i32, ptr %3, align 4
  ret i32 %147
}