; Function Attrs: nounwind uwtable
define internal fastcc range(i32 -1, 1) i32 @php_stream_handle_proxy_authorization_header(ptr noundef %0, ptr noundef nonnull %1) unnamed_addr #0 {
  br label %.loopexit

.loopexit:                                        ; preds = %.loopexit.backedge, %2
  %.142 = phi ptr [ %0, %2 ], [ %.142.be, %.loopexit.backedge ]
  %3 = load i8, ptr %.142, align 1, !tbaa !4
  switch i8 %3, label %.preheader65 [
    i8 32, label %.critedge
    i8 9, label %.critedge
  ]

.critedge:                                        ; preds = %.loopexit, %.loopexit
  %4 = getelementptr inbounds nuw i8, ptr %.142, i64 1
  br label %.loopexit.backedge

.loopexit.backedge:                               ; preds = %.critedge6, %.critedge
  %.142.be = phi ptr [ %4, %.critedge ], [ %.243, %.critedge6 ]
  br label %.loopexit

.preheader65:                                     ; preds = %.loopexit, %6
  %5 = phi i8 [ %.pr, %6 ], [ %3, %.loopexit ]
  %.0 = phi ptr [ %7, %6 ], [ %.142, %.loopexit ]
  switch i8 %5, label %6 [
    i8 58, label %8
    i8 0, label %.critedge6.preheader
    i8 10, label %.critedge6.preheader
    i8 13, label %.critedge6.preheader
  ]

6:                                                ; preds = %.preheader65
  %7 = getelementptr inbounds nuw i8, ptr %.0, i64 1
  %.pr = load i8, ptr %7, align 1, !tbaa !4
  br label %.preheader65

8:                                                ; preds = %.preheader65
  %9 = getelementptr inbounds nuw i8, ptr %.0, i64 1
  %10 = ptrtoint ptr %9 to i64
  %11 = ptrtoint ptr %.142 to i64
  %12 = sub i64 %10, %11
  %13 = icmp eq i64 %12, 20
  br i1 %13, label %14, label %.preheader101

.preheader101:                                    ; preds = %14, %8
  br label %47

14:                                               ; preds = %8
  %15 = tail call i32 @zend_binary_strcasecmp(ptr noundef nonnull %.142, i64 noundef 20, ptr noundef nonnull @.str.73, i64 noundef 20) #18
  %16 = icmp eq i32 %15, 0
  br i1 %16, label %.preheader, label %.preheader101

.preheader:                                       ; preds = %14, %18
  %.2 = phi ptr [ %19, %18 ], [ %9, %14 ]
  %17 = load i8, ptr %.2, align 1, !tbaa !4
  switch i8 %17, label %18 [
    i8 0, label %.critedge4
    i8 13, label %.critedge4
    i8 10, label %.critedge4
  ]

18:                                               ; preds = %.preheader
  %19 = getelementptr inbounds nuw i8, ptr %.2, i64 1
  br label %.preheader

.critedge4:                                       ; preds = %.preheader, %.preheader, %.preheader
  %20 = ptrtoint ptr %.2 to i64
  %21 = sub i64 %20, %11
  %22 = load ptr, ptr %1, align 8, !tbaa !51
  %.not.i59 = icmp eq ptr %22, null
  br i1 %.not.i59, label %29, label %23, !prof !53

23:                                               ; preds = %.critedge4
  %24 = getelementptr inbounds nuw i8, ptr %22, i64 16
  %25 = load i64, ptr %24, align 8, !tbaa !17
  %26 = add i64 %25, %21
  %27 = getelementptr inbounds nuw i8, ptr %1, i64 8
  %28 = load i64, ptr %27, align 8, !tbaa !54
  %.not12.i60 = icmp ult i64 %26, %28
  br i1 %.not12.i60, label %30, label %29, !prof !28

29:                                               ; preds = %23, %.critedge4
  %.0.i61 = phi i64 [ %21, %.critedge4 ], [ %26, %23 ]
  tail call void @smart_str_erealloc(ptr noundef nonnull %1, i64 noundef %.0.i61) #18
  %.pre78 = load ptr, ptr %1, align 8, !tbaa !51
  %.phi.trans.insert = getelementptr inbounds nuw i8, ptr %.pre78, i64 16
  %.pre79 = load i64, ptr %.phi.trans.insert, align 8, !tbaa !17
  br label %30

30:                                               ; preds = %29, %23
  %31 = phi i64 [ %.pre79, %29 ], [ %25, %23 ]
  %32 = phi ptr [ %.pre78, %29 ], [ %22, %23 ]
  %.1.i62 = phi i64 [ %.0.i61, %29 ], [ %26, %23 ]
  %33 = getelementptr inbounds nuw i8, ptr %32, i64 24
  %34 = getelementptr inbounds nuw i8, ptr %33, i64 %31
  tail call void @llvm.memcpy.p0.p0.i64(ptr nonnull align 1 %34, ptr nonnull align 1 %.142, i64 %21, i1 false)
  %35 = load ptr, ptr %1, align 8, !tbaa !51
  %36 = getelementptr inbounds nuw i8, ptr %35, i64 16
  store i64 %.1.i62, ptr %36, align 8, !tbaa !17
  %37 = add i64 %.1.i62, 2
  %38 = getelementptr inbounds nuw i8, ptr %1, i64 8
  %39 = load i64, ptr %38, align 8, !tbaa !54
  %.not12.i = icmp ult i64 %37, %39
  br i1 %.not12.i, label %smart_str_alloc.exit, label %40, !prof !28

40:                                               ; preds = %30
  tail call void @smart_str_erealloc(ptr noundef nonnull %1, i64 noundef %37) #18
  %.pre80 = load ptr, ptr %1, align 8, !tbaa !51
  %.phi.trans.insert81 = getelementptr inbounds nuw i8, ptr %.pre80, i64 16
  %.pre82 = load i64, ptr %.phi.trans.insert81, align 8, !tbaa !17
  br label %smart_str_alloc.exit

smart_str_alloc.exit:                             ; preds = %30, %40
  %41 = phi i64 [ %.1.i62, %30 ], [ %.pre82, %40 ]
  %42 = phi ptr [ %35, %30 ], [ %.pre80, %40 ]
  %43 = getelementptr inbounds nuw i8, ptr %42, i64 24
  %44 = getelementptr inbounds nuw i8, ptr %43, i64 %41
  store i16 2573, ptr %44, align 1
  %45 = load ptr, ptr %1, align 8, !tbaa !51
  %46 = getelementptr inbounds nuw i8, ptr %45, i64 16
  store i64 %37, ptr %46, align 8, !tbaa !17
  br label %.loopexit64

47:                                               ; preds = %.preheader101, %49
  %.3 = phi ptr [ %50, %49 ], [ %9, %.preheader101 ]
  %48 = load i8, ptr %.3, align 1, !tbaa !4
  switch i8 %48, label %49 [
    i8 0, label %.critedge6.preheader
    i8 13, label %.critedge6.preheader
    i8 10, label %.critedge6.preheader
  ]

.critedge6.preheader:                             ; preds = %.preheader65, %.preheader65, %.preheader65, %47, %47, %47
  %.ph = phi i8 [ %48, %47 ], [ %48, %47 ], [ %48, %47 ], [ %5, %.preheader65 ], [ %5, %.preheader65 ], [ %5, %.preheader65 ]
  %.243.ph = phi ptr [ %.3, %47 ], [ %.3, %47 ], [ %.3, %47 ], [ %.0, %.preheader65 ], [ %.0, %.preheader65 ], [ %.0, %.preheader65 ]
  br label %.critedge6

49:                                               ; preds = %47
  %50 = getelementptr inbounds nuw i8, ptr %.3, i64 1
  br label %47

.critedge6:                                       ; preds = %.critedge6.preheader, %.critedge8
  %51 = phi i8 [ %.pre, %.critedge8 ], [ %.ph, %.critedge6.preheader ]
  %.243 = phi ptr [ %52, %.critedge8 ], [ %.243.ph, %.critedge6.preheader ]
  switch i8 %51, label %.loopexit.backedge [
    i8 13, label %.critedge8
    i8 10, label %.critedge8
    i8 0, label %.loopexit64
  ]

.critedge8:                                       ; preds = %.critedge6, %.critedge6
  %52 = getelementptr inbounds nuw i8, ptr %.243, i64 1
  %.pre = load i8, ptr %52, align 1, !tbaa !4
  br label %.critedge6

.loopexit64:                                      ; preds = %.critedge6, %smart_str_alloc.exit
  %.040 = phi i32 [ 0, %smart_str_alloc.exit ], [ -1, %.critedge6 ]
  ret i32 %.040
}